target datalayout = "e-m:e-p270:32:32-p271:32:32-p272:64:64-i64:64-i128:128-f80:128-n8:16:32:64-S128"
target triple = "x86_64-pc-linux-gnu"

@.str.752 = private unnamed_addr constant [27 x i8] c"DVB-S2 Signalization Table\00", align 1
@.str.753 = private unnamed_addr constant [13 x i8] c"DVB-S2-TABLE\00", align 1
@.str.754 = private unnamed_addr constant [13 x i8] c"dvb-s2_table\00", align 1
@proto_dvb_s2_table = internal global i32 0, align 4
@.str.755 = private unnamed_addr constant [13 x i8] c"rcs_protocol\00", align 1
@.str.756 = private unnamed_addr constant [29 x i8] c"defines RCS protocol version\00", align 1
@.str.757 = private unnamed_addr constant [58 x i8] c"defines the RCS protocol version used in table dissection\00", align 1
@dvb_s2_rcs_version = internal global i32 1, align 4

; Function Attrs: null_pointer_is_valid sspstrong uwtable
define hidden void @proto_register_dvb_s2_table() #0 {
  %1 = alloca ptr, align 8
  call void @llvm.lifetime.start.p0(i64 8, ptr %1) #4
  %2 = call i32 @proto_register_protocol(ptr noundef @.str.752, ptr noundef @.str.753, ptr noundef @.str.754)
  store i32 %2, ptr @proto_dvb_s2_table, align 4
  %3 = load i32, ptr @proto_dvb_s2_table, align 4
  %4 = call ptr @register_dissector(ptr noundef @.str.754, ptr noundef @dissect_dvb_s2_table, i32 noundef %3)
  %5 = load i32, ptr @proto_dvb_s2_table, align 4
  call void @proto_register_field_array(i32 noundef %5, ptr noundef @proto_register_dvb_s2_table.hf_table, i32 noundef 396)
  call void @proto_register_subtree_array(ptr noundef @proto_register_dvb_s2_table.ett_table, i32 noundef 29)
  %6 = load i32, ptr @proto_dvb_s2_table, align 4
  %7 = call ptr @prefs_register_protocol(i32 noundef %6, ptr noundef @proto_reg_handoff_dvb_s2_table)
  store ptr %7, ptr %1, align 8
  %8 = load ptr, ptr %1, align 8
  call void @prefs_register_enum_preference(ptr noundef %8, ptr noundef @.str.755, ptr noundef @.str.756, ptr noundef @.str.757, ptr noundef @dvb_s2_rcs_version, ptr noundef @proto_register_dvb_s2_table.rcs_version, i1 noundef zeroext false)
  call void @llvm.lifetime.end.p0(i64 8, ptr %1) #4
  ret void
}