; Function Attrs: null_pointer_is_valid sspstrong uwtable
define hidden void @proto_register_dvb_s2_table() local_unnamed_addr #0 {
  %1 = tail call i32 @proto_register_protocol(ptr noundef nonnull @.str.752, ptr noundef nonnull @.str.753, ptr noundef nonnull @.str.754)
  store i32 %1, ptr @proto_dvb_s2_table, align 4
  %2 = tail call ptr @register_dissector(ptr noundef nonnull @.str.754, ptr noundef nonnull @dissect_dvb_s2_table, i32 noundef %1)
  %3 = load i32, ptr @proto_dvb_s2_table, align 4
  tail call void @proto_register_field_array(i32 noundef %3, ptr noundef nonnull @proto_register_dvb_s2_table.hf_table, i32 noundef 396)
  tail call void @proto_register_subtree_array(ptr noundef nonnull @proto_register_dvb_s2_table.ett_table, i32 noundef 29)
  %4 = load i32, ptr @proto_dvb_s2_table, align 4
  %5 = tail call ptr @prefs_register_protocol(i32 noundef %4, ptr noundef nonnull @proto_reg_handoff_dvb_s2_table)
  tail call void @prefs_register_enum_preference(ptr noundef %5, ptr noundef nonnull @.str.755, ptr noundef nonnull @.str.756, ptr noundef nonnull @.str.757, ptr noundef nonnull @dvb_s2_rcs_version, ptr noundef nonnull @proto_register_dvb_s2_table.rcs_version, i1 noundef zeroext false)
  ret void
}